; ModuleID = '14/59.c'
source_filename = "14/59.c"
target datalayout = "e-m:e-p270:32:32-p271:32:32-p272:64:64-i64:64-f80:128-n8:16:32:64-S128"
target triple = "x86_64-pc-linux-gnu"

%struct.student = type { [10 x i8], i32, i32, i32, %struct.student* }

@.str = private unnamed_addr constant [9 x i8] c"%s %d %d\00", align 1
@.str.1 = private unnamed_addr constant [3 x i8] c"%d\00", align 1
@.str.2 = private unnamed_addr constant [7 x i8] c"%s %d\0A\00", align 1
@n = common dso_local global i32 0, align 4

; Function Attrs: noinline nounwind uwtable
define dso_local %struct.student* @creat(i32 %0) #0 {
  %2 = alloca i32, align 4
  %3 = alloca %struct.student*, align 8
  %4 = alloca %struct.student*, align 8
  %5 = alloca %struct.student*, align 8
  %6 = alloca i32, align 4
  store i32 %0, i32* %2, align 4
  %7 = call noalias i8* @malloc(i64 100) #3
  %8 = bitcast i8* %7 to %struct.student*
  store %struct.student* %8, %struct.student** %5, align 8
  store %struct.student* %8, %struct.student** %4, align 8
  %9 = load %struct.student*, %struct.student** %4, align 8
  %10 = getelementptr inbounds %struct.student, %struct.student* %9, i32 0, i32 0
  %11 = getelementptr inbounds [10 x i8], [10 x i8]* %10, i64 0, i64 0
  %12 = load %struct.student*, %struct.student** %4, align 8
  %13 = getelementptr inbounds %struct.student, %struct.student* %12, i32 0, i32 1
  %14 = load %struct.student*, %struct.student** %4, align 8
  %15 = getelementptr inbounds %struct.student, %struct.student* %14, i32 0, i32 2
  %16 = call i32 (i8*, ...) @__isoc99_scanf(i8* getelementptr inbounds ([9 x i8], [9 x i8]* @.str, i64 0, i64 0), i8* %11, i32* %13, i32* %15)
  %17 = load %struct.student*, %struct.student** %4, align 8
  %18 = getelementptr inbounds %struct.student, %struct.student* %17, i32 0, i32 1
  %19 = load i32, i32* %18, align 4
  %20 = load %struct.student*, %struct.student** %4, align 8
  %21 = getelementptr inbounds %struct.student, %struct.student* %20, i32 0, i32 2
  %22 = load i32, i32* %21, align 8
  %23 = add nsw i32 %19, %22
  %24 = load %struct.student*, %struct.student** %4, align 8
  %25 = getelementptr inbounds %struct.student, %struct.student* %24, i32 0, i32 3
  store i32 %23, i32* %25, align 4
  store %struct.student* null, %struct.student** %3, align 8
  %26 = load i32, i32* %2, align 4
  store i32 %26, i32* %6, align 4
  br label %27

27:                                               ; preds = %40, %1
  %28 = load i32, i32* %2, align 4
  %29 = icmp sgt i32 %28, 1
  br i1 %29, label %30, label %63

30:                                               ; preds = %27
  %31 = load i32, i32* %2, align 4
  %32 = load i32, i32* %6, align 4
  %33 = icmp eq i32 %31, %32
  br i1 %33, label %34, label %36

34:                                               ; preds = %30
  %35 = load %struct.student*, %struct.student** %4, align 8
  store %struct.student* %35, %struct.student** %3, align 8
  br label %40

36:                                               ; preds = %30
  %37 = load %struct.student*, %struct.student** %4, align 8
  %38 = load %struct.student*, %struct.student** %5, align 8
  %39 = getelementptr inbounds %struct.student, %struct.student* %38, i32 0, i32 4
  store %struct.student* %37, %struct.student** %39, align 8
  br label %40

40:                                               ; preds = %36, %34
  %41 = load %struct.student*, %struct.student** %4, align 8
  store %struct.student* %41, %struct.student** %5, align 8
  %42 = call noalias i8* @malloc(i64 100) #3
  %43 = bitcast i8* %42 to %struct.student*
  store %struct.student* %43, %struct.student** %4, align 8
  %44 = load %struct.student*, %struct.student** %4, align 8
  %45 = getelementptr inbounds %struct.student, %struct.student* %44, i32 0, i32 0
  %46 = getelementptr inbounds [10 x i8], [10 x i8]* %45, i64 0, i64 0
  %47 = load %struct.student*, %struct.student** %4, align 8
  %48 = getelementptr inbounds %struct.student, %struct.student* %47, i32 0, i32 1
  %49 = load %struct.student*, %struct.student** %4, align 8
  %50 = getelementptr inbounds %struct.student, %struct.student* %49, i32 0, i32 2
  %51 = call i32 (i8*, ...) @__isoc99_scanf(i8* getelementptr inbounds ([9 x i8], [9 x i8]* @.str, i64 0, i64 0), i8* %46, i32* %48, i32* %50)
  %52 = load %struct.student*, %struct.student** %4, align 8
  %53 = getelementptr inbounds %struct.student, %struct.student* %52, i32 0, i32 1
  %54 = load i32, i32* %53, align 4
  %55 = load %struct.student*, %struct.student** %4, align 8
  %56 = getelementptr inbounds %struct.student, %struct.student* %55, i32 0, i32 2
  %57 = load i32, i32* %56, align 8
  %58 = add nsw i32 %54, %57
  %59 = load %struct.student*, %struct.student** %4, align 8
  %60 = getelementptr inbounds %struct.student, %struct.student* %59, i32 0, i32 3
  store i32 %58, i32* %60, align 4
  %61 = load i32, i32* %2, align 4
  %62 = add nsw i32 %61, -1
  store i32 %62, i32* %2, align 4
  br label %27

63:                                               ; preds = %27
  %64 = load %struct.student*, %struct.student** %5, align 8
  %65 = getelementptr inbounds %struct.student, %struct.student* %64, i32 0, i32 4
  store %struct.student* null, %struct.student** %65, align 8
  %66 = load %struct.student*, %struct.student** %3, align 8
  ret %struct.student* %66
}

; Function Attrs: nounwind
declare dso_local noalias i8* @malloc(i64) #1

declare dso_local i32 @__isoc99_scanf(i8*, ...) #2

; Function Attrs: noinline nounwind uwtable
define dso_local void @main() #0 {
  %1 = alloca i32, align 4
  %2 = alloca i32, align 4
  %3 = alloca %struct.student*, align 8
  %4 = alloca %struct.student*, align 8
  %5 = alloca %struct.student*, align 8
  %6 = alloca i32, align 4
  %7 = alloca i32, align 4
  %8 = alloca i32, align 4
  %9 = alloca %struct.student*, align 8
  %10 = alloca %struct.student*, align 8
  %11 = alloca %struct.student, align 8
  %12 = call i32 (i8*, ...) @__isoc99_scanf(i8* getelementptr inbounds ([3 x i8], [3 x i8]* @.str.1, i64 0, i64 0), i32* %1)
  %13 = load i32, i32* %1, align 4
  %14 = call %struct.student* @creat(i32 %13)
  store %struct.student* %14, %struct.student** %9, align 8
  %15 = load %struct.student*, %struct.student** %9, align 8
  store %struct.student* %15, %struct.student** %3, align 8
  %16 = load %struct.student*, %struct.student** %9, align 8
  store %struct.student* %16, %struct.student** %4, align 8
  %17 = load %struct.student*, %struct.student** %9, align 8
  store %struct.student* %17, %struct.student** %5, align 8
  %18 = load %struct.student*, %struct.student** %9, align 8
  store %struct.student* %18, %struct.student** %10, align 8
  br label %19

19:                                               ; preds = %60, %0
  %20 = load %struct.student*, %struct.student** %10, align 8
  %21 = getelementptr inbounds %struct.student, %struct.student* %20, i32 0, i32 4
  %22 = load %struct.student*, %struct.student** %21, align 8
  %23 = icmp ne %struct.student* %22, null
  br i1 %23, label %24, label %64

24:                                               ; preds = %19
  %25 = load %struct.student*, %struct.student** %10, align 8
  %26 = getelementptr inbounds %struct.student, %struct.student* %25, i32 0, i32 3
  %27 = load i32, i32* %26, align 4
  %28 = load %struct.student*, %struct.student** %3, align 8
  %29 = getelementptr inbounds %struct.student, %struct.student* %28, i32 0, i32 3
  %30 = load i32, i32* %29, align 4
  %31 = icmp sgt i32 %27, %30
  br i1 %31, label %32, label %36

32:                                               ; preds = %24
  %33 = load %struct.student*, %struct.student** %4, align 8
  store %struct.student* %33, %struct.student** %5, align 8
  %34 = load %struct.student*, %struct.student** %3, align 8
  store %struct.student* %34, %struct.student** %4, align 8
  %35 = load %struct.student*, %struct.student** %10, align 8
  store %struct.student* %35, %struct.student** %3, align 8
  br label %59

36:                                               ; preds = %24
  %37 = load %struct.student*, %struct.student** %10, align 8
  %38 = getelementptr inbounds %struct.student, %struct.student* %37, i32 0, i32 3
  %39 = load i32, i32* %38, align 4
  %40 = load %struct.student*, %struct.student** %4, align 8
  %41 = getelementptr inbounds %struct.student, %struct.student* %40, i32 0, i32 3
  %42 = load i32, i32* %41, align 4
  %43 = icmp sgt i32 %39, %42
  br i1 %43, label %44, label %47

44:                                               ; preds = %36
  %45 = load %struct.student*, %struct.student** %4, align 8
  store %struct.student* %45, %struct.student** %5, align 8
  %46 = load %struct.student*, %struct.student** %10, align 8
  store %struct.student* %46, %struct.student** %4, align 8
  br label %58

47:                                               ; preds = %36
  %48 = load %struct.student*, %struct.student** %10, align 8
  %49 = getelementptr inbounds %struct.student, %struct.student* %48, i32 0, i32 3
  %50 = load i32, i32* %49, align 4
  %51 = load %struct.student*, %struct.student** %5, align 8
  %52 = getelementptr inbounds %struct.student, %struct.student* %51, i32 0, i32 3
  %53 = load i32, i32* %52, align 4
  %54 = icmp sgt i32 %50, %53
  br i1 %54, label %55, label %57

55:                                               ; preds = %47
  %56 = load %struct.student*, %struct.student** %10, align 8
  store %struct.student* %56, %struct.student** %5, align 8
  br label %57

57:                                               ; preds = %55, %47
  br label %58

58:                                               ; preds = %57, %44
  br label %59

59:                                               ; preds = %58, %32
  br label %60

60:                                               ; preds = %59
  %61 = load %struct.student*, %struct.student** %10, align 8
  %62 = getelementptr inbounds %struct.student, %struct.student* %61, i32 0, i32 4
  %63 = load %struct.student*, %struct.student** %62, align 8
  store %struct.student* %63, %struct.student** %10, align 8
  br label %19

64:                                               ; preds = %19
  %65 = load %struct.student*, %struct.student** %3, align 8
  %66 = getelementptr inbounds %struct.student, %struct.student* %65, i32 0, i32 0
  %67 = getelementptr inbounds [10 x i8], [10 x i8]* %66, i64 0, i64 0
  %68 = load %struct.student*, %struct.student** %3, align 8
  %69 = getelementptr inbounds %struct.student, %struct.student* %68, i32 0, i32 3
  %70 = load i32, i32* %69, align 4
  %71 = call i32 (i8*, ...) @printf(i8* getelementptr inbounds ([7 x i8], [7 x i8]* @.str.2, i64 0, i64 0), i8* %67, i32 %70)
  %72 = load %struct.student*, %struct.student** %4, align 8
  %73 = getelementptr inbounds %struct.student, %struct.student* %72, i32 0, i32 0
  %74 = getelementptr inbounds [10 x i8], [10 x i8]* %73, i64 0, i64 0
  %75 = load %struct.student*, %struct.student** %4, align 8
  %76 = getelementptr inbounds %struct.student, %struct.student* %75, i32 0, i32 3
  %77 = load i32, i32* %76, align 4
  %78 = call i32 (i8*, ...) @printf(i8* getelementptr inbounds ([7 x i8], [7 x i8]* @.str.2, i64 0, i64 0), i8* %74, i32 %77)
  %79 = load %struct.student*, %struct.student** %5, align 8
  %80 = getelementptr inbounds %struct.student, %struct.student* %79, i32 0, i32 0
  %81 = getelementptr inbounds [10 x i8], [10 x i8]* %80, i64 0, i64 0
  %82 = load %struct.student*, %struct.student** %5, align 8
  %83 = getelementptr inbounds %struct.student, %struct.student* %82, i32 0, i32 3
  %84 = load i32, i32* %83, align 4
  %85 = call i32 (i8*, ...) @printf(i8* getelementptr inbounds ([7 x i8], [7 x i8]* @.str.2, i64 0, i64 0), i8* %81, i32 %84)
  ret void
}

declare dso_local i32 @printf(i8*, ...) #2


!llvm.module.flags = !{!0}
!llvm.ident = !{!1}

!0 = !{i32 1, !"wchar_size", i32 4}
!1 = !{!"clang version 10.0.0-4ubuntu1 "}
